target datalayout = "e-m:e-p270:32:32-p271:32:32-p272:64:64-i64:64-i128:128-f80:128-n8:16:32:64-S128"
target triple = "x86_64-pc-linux-gnu"

; Function Attrs: mustprogress uwtable
define noundef i32 @_ZN12CFrmSettings12showSettingsEP8MdiChild(ptr noundef nonnull align 8 dereferenceable(152) %0, ptr noundef %1) #0 align 2 {
  %3 = alloca i32, align 4
  %4 = alloca ptr, align 8
  %5 = alloca ptr, align 8
  store ptr %0, ptr %4, align 8, !tbaa !55
  store ptr %1, ptr %5, align 8, !tbaa !215
  %6 = load ptr, ptr %4, align 8
  %7 = load ptr, ptr %5, align 8, !tbaa !215
  %8 = call noundef zeroext i1 @_ZN12CFrmSettings9loadGraphEP8MdiChild(ptr noundef nonnull align 8 dereferenceable(152) %6, ptr noundef %7)
  br i1 %8, label %9, label %14

9:                                                ; preds = %2
  call void @_ZN12CFrmSettings14refreshContentEv(ptr noundef nonnull align 8 dereferenceable(152) %6)
  %10 = load ptr, ptr %6, align 8, !tbaa !57
  %11 = getelementptr inbounds ptr, ptr %10, i64 53
  %12 = load ptr, ptr %11, align 8
  %13 = call noundef i32 %12(ptr noundef nonnull align 8 dereferenceable(40) %6)
  store i32 %13, ptr %3, align 4
  br label %15

14:                                               ; preds = %2
  store i32 0, ptr %3, align 4
  br label %15

15:                                               ; preds = %14, %9
  %16 = load i32, ptr %3, align 4
  ret i32 %16
}