; Function Attrs: mustprogress uwtable
define noundef i32 @_ZN12CFrmSettings12showSettingsEP8MdiChild(ptr noundef nonnull align 8 dereferenceable(152) %0, ptr noundef %1) local_unnamed_addr #0 align 2 {
  %3 = tail call noundef zeroext i1 @_ZN12CFrmSettings9loadGraphEP8MdiChild(ptr noundef nonnull align 8 dereferenceable(152) %0, ptr noundef %1)
  tail call void @_ZN12CFrmSettings14refreshContentEv(ptr noundef nonnull align 8 dereferenceable(152) %0)
  %4 = load ptr, ptr %0, align 8, !tbaa !28
  %5 = getelementptr inbounds nuw i8, ptr %4, i64 424
  %6 = load ptr, ptr %5, align 8
  %7 = tail call noundef i32 %6(ptr noundef nonnull align 8 dereferenceable(40) %0)
  ret i32 %7
}